Certificate:
    Data:
        Version: 3 (0x2)
        Serial Number: 8 (0x8)
    Signature Algorithm: sha256WithRSAEncryption
        Issuer: C=CN, ST=HZ, L=HZ, O=HZ, OU=HZ, CN=xls
        Validity
            Not Before: May 23 11:14:28 2017 GMT
            Not After : May 23 11:14:28 2018 GMT
        Subject: C=CN, ST=HZ, O=HZ, OU=HZ, CN=xls
        Subject Public Key Info:
            Public Key Algorithm: rsaEncryption
                Public-Key: (1024 bit)
                Modulus:
                    00:e1:e2:bc:31:43:e9:4f:f0:7b:6d:18:d1:3d:22:
                    26:25:af:ab:c9:f2:d5:f5:d0:7f:5c:36:7b:34:76:
                    ca:e4:c0:9a:43:26:d2:3f:5d:6d:9a:41:f5:69:6c:
                    f2:c9:65:dc:d6:53:a4:7c:cb:ec:34:78:d7:f1:46:
                    6b:bd:9a:87:bb:8f:d2:6c:b9:1f:20:6d:ef:b7:b4:
                    cf:d6:a5:35:56:3a:0d:8d:79:3e:5c:c4:55:9a:8d:
                    38:29:04:89:04:eb:e6:fe:43:5c:75:83:33:84:b9:
                    14:3a:36:eb:83:d9:37:7b:6a:9d:3b:e7:e5:db:ec:
                    eb:86:70:c5:b7:b5:2a:72:9d
                Exponent: 65537 (0x10001)
        X509v3 extensions:
            X509v3 Basic Constraints: 
                CA:FALSE
            Netscape Comment: 
                OpenSSL Generated Certificate
            X509v3 Subject Key Identifier: 
                00:46:7B:2F:90:08:42:4A:F5:DE:ED:00:75:29:0F:AE:CF:2F:30:FE
            X509v3 Authority Key Identifier: 
                keyid:B4:75:08:FF:27:CC:11:60:06:95:5E:B5:99:8C:98:0D:D6:2A:49:3F

    Signature Algorithm: sha256WithRSAEncryption
         52:84:09:f1:e0:7b:fe:e8:0f:18:d1:41:07:88:7a:4e:1d:40:
         3e:b3:4c:db:29:a3:d1:d9:fc:83:d1:9d:75:24:9d:a0:94:0e:
         d6:f4:36:fd:79:b4:e5:d1:c3:10:98:38:ad:d3:04:37:b9:05:
         f7:ad:f5:e6:6e:5d:62:e0:1e:4c:e0:c7:ca:95:3a:c3:f7:fb:
         1d:83:52:12:bf:02:e6:53:e2:d9:f6:09:68:de:60:fb:b6:e3:
         7c:d5:2b:a5:1b:a4:6b:e1:fb:24:bd:a1:58:b0:8e:68:99:aa:
         b7:ff:6c:3b:a1:5f:e9:78:eb:ec:ac:1c:df:0c:c3:82:16:f1:
         18:5a:df:a3:cf:7d:36:5a:be:f6:86:12:d4:4f:c7:d5:ef:34:
         06:78:23:5d:27:5b:07:e1:0d:b4:f0:cd:90:d8:09:84:ec:8d:
         a3:4e:15:3b:94:a4:1e:f3:75:d9:2e:f9:54:e2:16:9f:c7:df:
         e9:d9:0e:24:55:0c:fd:10:2d:1c:12:63:4e:a6:37:a0:d8:a9:
         f2:18:ec:73:18:c5:78:df:e9:d5:ea:a4:0d:40:dd:25:0c:56:
         32:da:4b:2d:62:0d:66:64:b4:a2:2b:c7:9b:6c:e6:35:a4:78:
         83:ab:fd:37:08:78:be:d6:87:eb:cf:02:ab:82:4f:0a:27:b7:
         9f:cb:65:cd
-----BEGIN CERTIFICATE-----
MIIDAzCCAeugAwIBAgIBCDANBgkqhkiG9w0BAQsFADBPMQswCQYDVQQGEwJDTjEL
MAkGA1UECAwCSFoxCzAJBgNVBAcMAkhaMQswCQYDVQQKDAJIWjELMAkGA1UECwwC
SFoxDDAKBgNVBAMMA3hsczAeFw0xNzA1MjMxMTE0MjhaFw0xODA1MjMxMTE0Mjha
MEIxCzAJBgNVBAYTAkNOMQswCQYDVQQIDAJIWjELMAkGA1UECgwCSFoxCzAJBgNV
BAsMAkhaMQwwCgYDVQQDDAN4bHMwgZ8wDQYJKoZIhvcNAQEBBQADgY0AMIGJAoGB
AOHivDFD6U/we20Y0T0iJiWvq8ny1fXQf1w2ezR2yuTAmkMm0j9dbZpB9Wls8sll
3NZTpHzL7DR41/FGa72ah7uP0my5HyBt77e0z9alNVY6DY15PlzEVZqNOCkEiQTr
5v5DXHWDM4S5FDo264PZN3tqnTvn5dvs64Zwxbe1KnKdAgMBAAGjezB5MAkGA1Ud
EwQCMAAwLAYJYIZIAYb4QgENBB8WHU9wZW5TU0wgR2VuZXJhdGVkIENlcnRpZmlj
YXRlMB0GA1UdDgQWBBQARnsvkAhCSvXe7QB1KQ+uzy8w/jAfBgNVHSMEGDAWgBS0
dQj/J8wRYAaVXrWZjJgN1ipJPzANBgkqhkiG9w0BAQsFAAOCAQEAUoQJ8eB7/ugP
GNFBB4h6Th1APrNM2ymj0dn8g9GddSSdoJQO1vQ2/Xm05dHDEJg4rdMEN7kF9631
5m5dYuAeTODHypU6w/f7HYNSEr8C5lPi2fYJaN5g+7bjfNUrpRuka+H7JL2hWLCO
aJmqt/9sO6Ff6Xjr7Kwc3wzDghbxGFrfo899Nlq+9oYS1E/H1e80BngjXSdbB+EN
tPDNkNgJhOyNo04VO5SkHvN12S75VOIWn8ff6dkOJFUM/RAtHBJjTqY3oNip8hjs
cxjFeN/p1eqkDUDdJQxWMtpLLWINZmS0oivHm2zmNaR4g6v9Nwh4vtaH688Cq4JP
Cie3n8tlzQ==
-----END CERTIFICATE-----
