Certificate:
    Data:
        Version: 3 (0x2)
        Serial Number: 7 (0x7)
    Signature Algorithm: sha256WithRSAEncryption
        Issuer: C=CN, ST=HZ, L=HZ, O=HZ, OU=HZ, CN=xls
        Validity
            Not Before: May 23 11:09:08 2017 GMT
            Not After : May 23 11:09:08 2018 GMT
        Subject: C=CN, ST=HZ, O=HZ, OU=HZ, CN=127.0.0.1
        Subject Public Key Info:
            Public Key Algorithm: rsaEncryption
                Public-Key: (1024 bit)
                Modulus:
                    00:be:b7:82:04:50:91:47:01:2c:62:d8:31:8b:40:
                    1f:24:0c:a9:c1:d3:02:c5:c4:f6:c0:01:11:02:b8:
                    99:2e:dd:5d:84:6c:e5:21:c6:57:d6:7f:ae:cd:5d:
                    4e:99:c8:0c:e8:9a:d5:2f:b8:f7:81:4c:8e:96:c1:
                    62:42:8f:eb:a7:d2:a8:5b:65:3c:e6:c1:20:22:76:
                    89:d7:ad:ce:12:95:bf:45:34:f5:77:94:a3:a9:2c:
                    9a:5e:9d:67:ab:2d:cb:97:7f:c5:df:8f:60:38:5a:
                    81:07:ce:c2:77:8b:d5:55:73:fc:cc:72:44:29:7c:
                    81:dd:a4:7e:41:60:23:5a:f7
                Exponent: 65537 (0x10001)
        X509v3 extensions:
            X509v3 Basic Constraints: 
                CA:FALSE
            Netscape Comment: 
                OpenSSL Generated Certificate
            X509v3 Subject Key Identifier: 
                87:37:3E:98:4C:F7:B7:D9:7E:24:2A:33:6E:D8:42:42:0C:AF:2F:18
            X509v3 Authority Key Identifier: 
                keyid:B4:75:08:FF:27:CC:11:60:06:95:5E:B5:99:8C:98:0D:D6:2A:49:3F

    Signature Algorithm: sha256WithRSAEncryption
         b6:6d:bf:f3:e6:bc:0c:5e:8f:be:d9:17:9b:4c:cc:9c:2c:14:
         da:29:13:aa:b9:37:1c:51:9e:a4:39:29:56:1e:40:9e:e0:62:
         a9:bd:5d:d0:5e:2e:0e:63:c6:80:ca:7e:c1:15:9f:46:e1:08:
         33:16:22:47:fa:ce:d1:35:ac:8f:1a:59:b8:b3:8d:39:82:9a:
         ab:de:51:e2:14:8d:9a:5d:51:8f:c7:94:c0:75:31:ca:a7:b4:
         04:71:4f:78:60:c8:a4:c9:8a:36:25:4e:82:01:1b:86:0b:85:
         d8:c9:1d:22:29:a3:f0:00:44:ab:5b:34:18:6d:0d:9c:e6:db:
         c6:4e:3a:70:24:22:ee:a3:cb:27:78:51:e7:c0:b0:fa:aa:da:
         cb:76:71:20:8b:12:40:61:75:45:87:af:a4:c4:fb:d3:d9:11:
         6d:1a:8e:76:e3:51:f3:b5:28:be:48:46:67:57:34:f8:e3:74:
         d7:1b:54:b7:93:c1:8e:0c:c5:eb:dc:74:6a:d1:8b:d0:1b:4c:
         1f:c0:ab:27:98:a5:60:7d:af:78:cf:79:f0:61:a9:35:59:7f:
         82:39:17:b6:39:c4:9c:01:fa:8f:d7:b2:b6:f7:7c:e8:28:35:
         4e:eb:14:1f:bd:2b:37:a9:91:6e:87:61:93:fa:95:76:73:9d:
         55:8a:8d:6b
-----BEGIN CERTIFICATE-----
MIIDCTCCAfGgAwIBAgIBBzANBgkqhkiG9w0BAQsFADBPMQswCQYDVQQGEwJDTjEL
MAkGA1UECAwCSFoxCzAJBgNVBAcMAkhaMQswCQYDVQQKDAJIWjELMAkGA1UECwwC
SFoxDDAKBgNVBAMMA3hsczAeFw0xNzA1MjMxMTA5MDhaFw0xODA1MjMxMTA5MDha
MEgxCzAJBgNVBAYTAkNOMQswCQYDVQQIDAJIWjELMAkGA1UECgwCSFoxCzAJBgNV
BAsMAkhaMRIwEAYDVQQDDAkxMjcuMC4wLjEwgZ8wDQYJKoZIhvcNAQEBBQADgY0A
MIGJAoGBAL63ggRQkUcBLGLYMYtAHyQMqcHTAsXE9sABEQK4mS7dXYRs5SHGV9Z/
rs1dTpnIDOia1S+494FMjpbBYkKP66fSqFtlPObBICJ2idetzhKVv0U09XeUo6ks
ml6dZ6sty5d/xd+PYDhagQfOwneL1VVz/MxyRCl8gd2kfkFgI1r3AgMBAAGjezB5
MAkGA1UdEwQCMAAwLAYJYIZIAYb4QgENBB8WHU9wZW5TU0wgR2VuZXJhdGVkIENl
cnRpZmljYXRlMB0GA1UdDgQWBBSHNz6YTPe32X4kKjNu2EJCDK8vGDAfBgNVHSME
GDAWgBS0dQj/J8wRYAaVXrWZjJgN1ipJPzANBgkqhkiG9w0BAQsFAAOCAQEAtm2/
8+a8DF6PvtkXm0zMnCwU2ikTqrk3HFGepDkpVh5AnuBiqb1d0F4uDmPGgMp+wRWf
RuEIMxYiR/rO0TWsjxpZuLONOYKaq95R4hSNml1Rj8eUwHUxyqe0BHFPeGDIpMmK
NiVOggEbhguF2MkdIimj8ABEq1s0GG0NnObbxk46cCQi7qPLJ3hR58Cw+qray3Zx
IIsSQGF1RYevpMT709kRbRqOduNR87UovkhGZ1c0+ON01xtUt5PBjgzF69x0atGL
0BtMH8CrJ5ilYH2veM958GGpNVl/gjkXtjnEnAH6j9eytvd86Cg1TusUH70rN6mR
bodhk/qVdnOdVYqNaw==
-----END CERTIFICATE-----
